; Function Attrs: null_pointer_is_valid sspstrong uwtable
define zeroext i16 @get_CDR_ushort(ptr noundef %0, ptr noundef captures(none) %1, i1 noundef zeroext %2, i32 noundef %3) local_unnamed_addr #0 {
  %.promoted = load i32, ptr %1, align 4
  %5 = add i32 %.promoted, %3
  %6 = and i32 %5, 1
  %.not9 = icmp eq i32 %6, 0
  br i1 %.not9, label %8, label %.lr.ph.preheader

.lr.ph.preheader:                                 ; preds = %4
  %7 = add i32 %.promoted, 1
  store i32 %7, ptr %1, align 4
  br label %8

8:                                                ; preds = %.lr.ph.preheader, %4
  %.lcssa = phi i32 [ %7, %.lr.ph.preheader ], [ %.promoted, %4 ]
  br i1 %2, label %9, label %11

9:                                                ; preds = %8
  %10 = tail call zeroext i16 @tvb_get_ntohs(ptr noundef %0, i32 noundef %.lcssa)
  br label %13

11:                                               ; preds = %8
  %12 = tail call zeroext i16 @tvb_get_letohs(ptr noundef %0, i32 noundef %.lcssa)
  br label %13

13:                                               ; preds = %11, %9
  %.in = phi i16 [ %10, %9 ], [ %12, %11 ]
  %14 = load i32, ptr %1, align 4
  %15 = add i32 %14, 2
  store i32 %15, ptr %1, align 4
  ret i16 %.in
}